target datalayout = "e-m:e-p270:32:32-p271:32:32-p272:64:64-i64:64-i128:128-f80:128-n8:16:32:64-S128"
target triple = "x86_64-pc-linux-gnu"

%struct.slurm_step_id_msg = type { i64, i32, i32, i32 }
%struct.step_launch_state = type { %union.pthread_mutex_t, %union.pthread_cond_t, i32, ptr, ptr, ptr, i64, i8, ptr, i32, i8, i8, i8, i32, ptr, i64, i32, i16, ptr, ptr, ptr, [1 x %struct.mpi_step_info_t], ptr, i32, %struct.slurm_step_launch_callbacks_t }
%union.pthread_mutex_t = type { %struct.__pthread_mutex_s }
%struct.__pthread_mutex_s = type { i32, i32, i32, i32, i32, i16, i16, %struct.__pthread_internal_list }
%struct.__pthread_internal_list = type { ptr, ptr }
%union.pthread_cond_t = type { %struct.__pthread_cond_s }
%struct.__pthread_cond_s = type { %union.__atomic_wide_counter, %union.__atomic_wide_counter, [2 x i32], [2 x i32], i32, i32, [2 x i32] }
%union.__atomic_wide_counter = type { i64 }
%struct.mpi_step_info_t = type { i32, i32, %struct.slurm_step_id_msg, ptr }
%struct.slurm_step_launch_callbacks_t = type { ptr, ptr, ptr, ptr, ptr }

@.str.2 = private unnamed_addr constant [14 x i8] c"step_launch.c\00", align 1
@.str.20 = private unnamed_addr constant [32 x i8] c"%s: pthread_mutex_destroy(): %m\00", align 1
@__func__.step_launch_state_destroy = private unnamed_addr constant [26 x i8] c"step_launch_state_destroy\00", align 1
@.str.21 = private unnamed_addr constant [37 x i8] c"%s:%d %s: pthread_cond_destroy(): %m\00", align 1

; Function Attrs: nounwind uwtable
define dso_local void @step_launch_state_destroy(ptr noundef %0) #0 {
  %2 = alloca ptr, align 8
  %3 = alloca i32, align 4
  %4 = alloca i32, align 4
  store ptr %0, ptr %2, align 8
  br label %5

5:                                                ; preds = %1
  call void @llvm.lifetime.start.p0(i64 4, ptr %3) #10
  %6 = load ptr, ptr %2, align 8
  %7 = getelementptr inbounds nuw %struct.step_launch_state, ptr %6, i32 0, i32 0
  %8 = call i32 @pthread_mutex_destroy(ptr noundef %7) #10
  store i32 %8, ptr %3, align 4
  %9 = load i32, ptr %3, align 4
  %10 = icmp ne i32 %9, 0
  br i1 %10, label %11, label %14

11:                                               ; preds = %5
  %12 = load i32, ptr %3, align 4
  %13 = call ptr @__errno_location() #11
  store i32 %12, ptr %13, align 4
  call void (ptr, ...) @fatal_abort(ptr noundef @.str.20, ptr noundef @__func__.step_launch_state_destroy) #12
  unreachable

14:                                               ; preds = %5
  call void @llvm.lifetime.end.p0(i64 4, ptr %3) #10
  br label %15

15:                                               ; preds = %14
  br label %16

16:                                               ; preds = %15
  call void @llvm.lifetime.start.p0(i64 4, ptr %4) #10
  %17 = load ptr, ptr %2, align 8
  %18 = getelementptr inbounds nuw %struct.step_launch_state, ptr %17, i32 0, i32 1
  %19 = call i32 @pthread_cond_destroy(ptr noundef %18) #10
  store i32 %19, ptr %4, align 4
  %20 = load i32, ptr %4, align 4
  %21 = icmp ne i32 %20, 0
  br i1 %21, label %22, label %26

22:                                               ; preds = %16
  %23 = load i32, ptr %4, align 4
  %24 = call ptr @__errno_location() #11
  store i32 %23, ptr %24, align 4
  %25 = call i32 (ptr, ...) @error(ptr noundef @.str.21, ptr noundef @.str.2, i32 noundef 994, ptr noundef @__func__.step_launch_state_destroy)
  br label %26

26:                                               ; preds = %22, %16
  call void @llvm.lifetime.end.p0(i64 4, ptr %4) #10
  br label %27

27:                                               ; preds = %26
  br label %28

28:                                               ; preds = %27
  %29 = load ptr, ptr %2, align 8
  %30 = getelementptr inbounds nuw %struct.step_launch_state, ptr %29, i32 0, i32 3
  %31 = load ptr, ptr %30, align 8
  %32 = icmp ne ptr %31, null
  br i1 %32, label %33, label %36

33:                                               ; preds = %28
  %34 = load ptr, ptr %2, align 8
  %35 = getelementptr inbounds nuw %struct.step_launch_state, ptr %34, i32 0, i32 3
  call void @slurm_bit_free(ptr noundef %35)
  br label %36

36:                                               ; preds = %33, %28
  %37 = load ptr, ptr %2, align 8
  %38 = getelementptr inbounds nuw %struct.step_launch_state, ptr %37, i32 0, i32 3
  store ptr null, ptr %38, align 8
  br label %39

39:                                               ; preds = %36
  br label %40

40:                                               ; preds = %39
  %41 = load ptr, ptr %2, align 8
  %42 = getelementptr inbounds nuw %struct.step_launch_state, ptr %41, i32 0, i32 4
  %43 = load ptr, ptr %42, align 8
  %44 = icmp ne ptr %43, null
  br i1 %44, label %45, label %48

45:                                               ; preds = %40
  %46 = load ptr, ptr %2, align 8
  %47 = getelementptr inbounds nuw %struct.step_launch_state, ptr %46, i32 0, i32 4
  call void @slurm_bit_free(ptr noundef %47)
  br label %48

48:                                               ; preds = %45, %40
  %49 = load ptr, ptr %2, align 8
  %50 = getelementptr inbounds nuw %struct.step_launch_state, ptr %49, i32 0, i32 4
  store ptr null, ptr %50, align 8
  br label %51

51:                                               ; preds = %48
  br label %52

52:                                               ; preds = %51
  %53 = load ptr, ptr %2, align 8
  %54 = getelementptr inbounds nuw %struct.step_launch_state, ptr %53, i32 0, i32 5
  %55 = load ptr, ptr %54, align 8
  %56 = icmp ne ptr %55, null
  br i1 %56, label %57, label %60

57:                                               ; preds = %52
  %58 = load ptr, ptr %2, align 8
  %59 = getelementptr inbounds nuw %struct.step_launch_state, ptr %58, i32 0, i32 5
  call void @slurm_bit_free(ptr noundef %59)
  br label %60

60:                                               ; preds = %57, %52
  %61 = load ptr, ptr %2, align 8
  %62 = getelementptr inbounds nuw %struct.step_launch_state, ptr %61, i32 0, i32 5
  store ptr null, ptr %62, align 8
  br label %63

63:                                               ; preds = %60
  %64 = load ptr, ptr %2, align 8
  %65 = getelementptr inbounds nuw %struct.step_launch_state, ptr %64, i32 0, i32 8
  call void @slurm_xfree(ptr noundef %65)
  %66 = load ptr, ptr %2, align 8
  %67 = getelementptr inbounds nuw %struct.step_launch_state, ptr %66, i32 0, i32 18
  %68 = load ptr, ptr %67, align 8
  %69 = icmp ne ptr %68, null
  br i1 %69, label %70, label %73

70:                                               ; preds = %63
  %71 = load ptr, ptr %2, align 8
  %72 = getelementptr inbounds nuw %struct.step_launch_state, ptr %71, i32 0, i32 18
  call void @slurm_xfree(ptr noundef %72)
  br label %73

73:                                               ; preds = %70, %63
  ret void
}