; Function Attrs: nounwind uwtable
define dso_local void @step_launch_state_destroy(ptr noundef %0) local_unnamed_addr #3 {
  %2 = tail call i32 @pthread_mutex_destroy(ptr noundef %0) #14
  %.not = icmp eq i32 %2, 0
  br i1 %.not, label %5, label %3

3:                                                ; preds = %1
  %4 = tail call ptr @__errno_location() #15
  store i32 %2, ptr %4, align 4
  tail call void (ptr, ...) @fatal_abort(ptr noundef nonnull @.str.20, ptr noundef nonnull @__func__.step_launch_state_destroy) #16
  unreachable

5:                                                ; preds = %1
  %6 = getelementptr inbounds nuw i8, ptr %0, i64 40
  %7 = tail call i32 @pthread_cond_destroy(ptr noundef nonnull %6) #14
  %.not18 = icmp eq i32 %7, 0
  br i1 %.not18, label %11, label %8

8:                                                ; preds = %5
  %9 = tail call ptr @__errno_location() #15
  store i32 %7, ptr %9, align 4
  %10 = tail call i32 (ptr, ...) @error(ptr noundef nonnull @.str.21, ptr noundef nonnull @.str.2, i32 noundef 994, ptr noundef nonnull @__func__.step_launch_state_destroy) #14
  br label %11

11:                                               ; preds = %8, %5
  %12 = getelementptr inbounds nuw i8, ptr %0, i64 96
  %13 = load ptr, ptr %12, align 8
  %.not19 = icmp eq ptr %13, null
  br i1 %.not19, label %15, label %14

14:                                               ; preds = %11
  tail call void @slurm_bit_free(ptr noundef nonnull %12) #14
  br label %15

15:                                               ; preds = %14, %11
  store ptr null, ptr %12, align 8
  %16 = getelementptr inbounds nuw i8, ptr %0, i64 104
  %17 = load ptr, ptr %16, align 8
  %.not20 = icmp eq ptr %17, null
  br i1 %.not20, label %19, label %18

18:                                               ; preds = %15
  tail call void @slurm_bit_free(ptr noundef nonnull %16) #14
  br label %19

19:                                               ; preds = %18, %15
  store ptr null, ptr %16, align 8
  %20 = getelementptr inbounds nuw i8, ptr %0, i64 112
  %21 = load ptr, ptr %20, align 8
  %.not21 = icmp eq ptr %21, null
  br i1 %.not21, label %23, label %22

22:                                               ; preds = %19
  tail call void @slurm_bit_free(ptr noundef nonnull %20) #14
  br label %23

23:                                               ; preds = %22, %19
  store ptr null, ptr %20, align 8
  %24 = getelementptr inbounds nuw i8, ptr %0, i64 136
  tail call void @slurm_xfree(ptr noundef nonnull %24) #14
  %25 = getelementptr inbounds nuw i8, ptr %0, i64 184
  %26 = load ptr, ptr %25, align 8
  %.not22 = icmp eq ptr %26, null
  br i1 %.not22, label %28, label %27

27:                                               ; preds = %23
  tail call void @slurm_xfree(ptr noundef nonnull %25) #14
  br label %28

28:                                               ; preds = %27, %23
  ret void
}